; Function Attrs: mustprogress nofree norecurse nosync nounwind willreturn memory(argmem: write) uwtable
define void @lv_anim_set_values(ptr nocapture noundef writeonly %0, i32 noundef %1, i32 noundef %2) local_unnamed_addr #6 {
  %4 = getelementptr inbounds nuw i8, ptr %0, i64 72
  store i32 %1, ptr %4, align 8, !tbaa !27
  %5 = getelementptr inbounds nuw i8, ptr %0, i64 76
  store i32 -2147483648, ptr %5, align 4, !tbaa !32
  %6 = getelementptr inbounds nuw i8, ptr %0, i64 80
  store i32 %2, ptr %6, align 8, !tbaa !28
  ret void
}